target datalayout = "e-m:e-p270:32:32-p271:32:32-p272:64:64-i64:64-i128:128-f80:128-n8:16:32:64-S128"
target triple = "x86_64-pc-linux-gnu"

; Function Attrs: mustprogress nounwind uwtable
define hidden void @_ZN4ncnn19get_rotation_matrixEffffPf(float noundef nofpclass(nan inf) %0, float noundef nofpclass(nan inf) %1, float noundef nofpclass(nan inf) %2, float noundef nofpclass(nan inf) %3, ptr noundef %4) #0 {
  %6 = alloca float, align 4
  %7 = alloca float, align 4
  %8 = alloca float, align 4
  %9 = alloca float, align 4
  %10 = alloca ptr, align 8
  %11 = alloca float, align 4
  %12 = alloca float, align 4
  store float %0, ptr %6, align 4
  store float %1, ptr %7, align 4
  store float %2, ptr %8, align 4
  store float %3, ptr %9, align 4
  store ptr %4, ptr %10, align 8
  %13 = load float, ptr %6, align 4
  %14 = fmul fast float %13, 0x3F91DF46A0000000
  store float %14, ptr %6, align 4
  %15 = load float, ptr %6, align 4
  %16 = call fast float @llvm.cos.f32(float %15)
  %17 = load float, ptr %7, align 4
  %18 = fmul fast float %16, %17
  store float %18, ptr %11, align 4
  %19 = load float, ptr %6, align 4
  %20 = call fast float @llvm.sin.f32(float %19)
  %21 = load float, ptr %7, align 4
  %22 = fmul fast float %20, %21
  store float %22, ptr %12, align 4
  %23 = load float, ptr %11, align 4
  %24 = load ptr, ptr %10, align 8
  %25 = getelementptr inbounds float, ptr %24, i64 0
  store float %23, ptr %25, align 4
  %26 = load float, ptr %12, align 4
  %27 = load ptr, ptr %10, align 8
  %28 = getelementptr inbounds float, ptr %27, i64 1
  store float %26, ptr %28, align 4
  %29 = load float, ptr %11, align 4
  %30 = fsub fast float 1.000000e+00, %29
  %31 = load float, ptr %8, align 4
  %32 = fmul fast float %30, %31
  %33 = load float, ptr %12, align 4
  %34 = load float, ptr %9, align 4
  %35 = fmul fast float %33, %34
  %36 = fsub fast float %32, %35
  %37 = load ptr, ptr %10, align 8
  %38 = getelementptr inbounds float, ptr %37, i64 2
  store float %36, ptr %38, align 4
  %39 = load float, ptr %12, align 4
  %40 = fneg fast float %39
  %41 = load ptr, ptr %10, align 8
  %42 = getelementptr inbounds float, ptr %41, i64 3
  store float %40, ptr %42, align 4
  %43 = load float, ptr %11, align 4
  %44 = load ptr, ptr %10, align 8
  %45 = getelementptr inbounds float, ptr %44, i64 4
  store float %43, ptr %45, align 4
  %46 = load float, ptr %12, align 4
  %47 = load float, ptr %8, align 4
  %48 = fmul fast float %46, %47
  %49 = load float, ptr %11, align 4
  %50 = fsub fast float 1.000000e+00, %49
  %51 = load float, ptr %9, align 4
  %52 = fmul fast float %50, %51
  %53 = fadd fast float %48, %52
  %54 = load ptr, ptr %10, align 8
  %55 = getelementptr inbounds float, ptr %54, i64 5
  store float %53, ptr %55, align 4
  ret void
}