; Function Attrs: mustprogress nofree norecurse nosync nounwind willreturn memory(argmem: write) uwtable
define hidden void @_ZN4ncnn19get_rotation_matrixEffffPf(float noundef nofpclass(nan inf) %0, float noundef nofpclass(nan inf) %1, float noundef nofpclass(nan inf) %2, float noundef nofpclass(nan inf) %3, ptr nocapture noundef writeonly %4) local_unnamed_addr #0 {
  %6 = fmul fast float %0, 0x3F91DF46A0000000
  %7 = tail call fast float @llvm.cos.f32(float %6)
  %8 = fmul fast float %7, %1
  %9 = tail call fast float @llvm.sin.f32(float %6)
  %10 = fmul fast float %9, %1
  store float %8, ptr %4, align 4
  %11 = getelementptr inbounds i8, ptr %4, i64 4
  store float %10, ptr %11, align 4
  %12 = fsub fast float 1.000000e+00, %8
  %13 = fmul fast float %12, %2
  %14 = fmul fast float %10, %3
  %15 = fsub fast float %13, %14
  %16 = getelementptr inbounds i8, ptr %4, i64 8
  store float %15, ptr %16, align 4
  %17 = fneg fast float %10
  %18 = getelementptr inbounds i8, ptr %4, i64 12
  store float %17, ptr %18, align 4
  %19 = getelementptr inbounds i8, ptr %4, i64 16
  store float %8, ptr %19, align 4
  %20 = fmul fast float %10, %2
  %21 = fmul fast float %12, %3
  %22 = fadd fast float %21, %20
  %23 = getelementptr inbounds i8, ptr %4, i64 20
  store float %22, ptr %23, align 4
  ret void
}